; Function Attrs: cold nounwind optsize uwtable
define internal void @uninit(ptr noundef readonly captures(none) %0) #0 {
  %2 = getelementptr inbounds nuw i8, ptr %0, i64 72
  %3 = load ptr, ptr %2, align 8, !tbaa !4
  %4 = getelementptr inbounds nuw i8, ptr %3, i64 296
  tail call void @ff_framesync_uninit(ptr noundef nonnull %4) #11
  %5 = getelementptr inbounds nuw i8, ptr %3, i64 288
  tail call void @av_freep(ptr noundef nonnull %5) #11
  %6 = getelementptr inbounds nuw i8, ptr %3, i64 280
  tail call void @av_freep(ptr noundef nonnull %6) #11
  ret void
}